; Function Attrs: nounwind uwtable
define internal ptr @get_video_buffer(ptr noundef %0, i32 noundef %1, i32 noundef %2) #2 {
  %4 = getelementptr inbounds nuw i8, ptr %0, i64 16
  %5 = load ptr, ptr %4, align 8, !tbaa !28
  %6 = getelementptr inbounds nuw i8, ptr %5, i64 72
  %7 = load ptr, ptr %6, align 8, !tbaa !4
  %8 = getelementptr inbounds nuw i8, ptr %7, i64 144
  %9 = load i32, ptr %8, align 8, !tbaa !37
  %.not = icmp eq i32 %9, 0
  br i1 %.not, label %12, label %10

10:                                               ; preds = %3
  %11 = tail call ptr @ff_null_get_video_buffer(ptr noundef nonnull %0, i32 noundef %1, i32 noundef %2) #5
  br label %14

12:                                               ; preds = %3
  %13 = tail call ptr @ff_default_get_video_buffer(ptr noundef nonnull %0, i32 noundef %1, i32 noundef %2) #5
  br label %14

14:                                               ; preds = %12, %10
  %15 = phi ptr [ %11, %10 ], [ %13, %12 ]
  ret ptr %15
}